target datalayout = "e-m:e-p270:32:32-p271:32:32-p272:64:64-i64:64-i128:128-f80:128-n8:16:32:64-S128"
target triple = "x86_64-pc-linux-gnu"

%"class.clang::CodeGen::SwiftABIInfo" = type <{ ptr, ptr, i8, [7 x i8] }>
%"class.clang::CodeGen::TargetCodeGenInfo" = type { ptr, %"class.std::unique_ptr.880", %"class.std::unique_ptr.888" }
%"class.std::unique_ptr.880" = type { %"struct.std::__uniq_ptr_data.881" }
%"struct.std::__uniq_ptr_data.881" = type { %"class.std::__uniq_ptr_impl.882" }
%"class.std::__uniq_ptr_impl.882" = type { %"class.std::tuple.883" }
%"class.std::tuple.883" = type { %"struct.std::_Tuple_impl.884" }
%"struct.std::_Tuple_impl.884" = type { %"struct.std::_Head_base.887" }
%"struct.std::_Head_base.887" = type { ptr }
%"class.std::unique_ptr.888" = type { %"struct.std::__uniq_ptr_data.889" }
%"struct.std::__uniq_ptr_data.889" = type { %"class.std::__uniq_ptr_impl.890" }
%"class.std::__uniq_ptr_impl.890" = type { %"class.std::tuple.891" }
%"class.std::tuple.891" = type { %"struct.std::_Tuple_impl.892" }
%"struct.std::_Tuple_impl.892" = type { %"struct.std::_Head_base.895" }
%"struct.std::_Head_base.895" = type { ptr }

; Function Attrs: mustprogress nounwind uwtable
define linkonce_odr hidden noundef nonnull align 8 dereferenceable(8) ptr @_ZNSt10_Head_baseILm0EPN5clang7CodeGen12SwiftABIInfoELb0EE7_M_headERKS4_(ptr noundef nonnull align 8 dereferenceable(8) %0) #0 comdat align 2 {
  %2 = alloca ptr, align 8
  store ptr %0, ptr %2, align 8
  %3 = load ptr, ptr %2, align 8
  %4 = getelementptr inbounds nuw %"struct.std::_Head_base.895", ptr %3, i32 0, i32 0
  ret ptr %4
}

; Function Attrs: mustprogress nounwind uwtable
define linkonce_odr hidden noundef nonnull align 8 dereferenceable(8) ptr @_ZNSt11_Tuple_implILm0EJPN5clang7CodeGen12SwiftABIInfoESt14default_deleteIS2_EEE7_M_headERKS6_(ptr noundef nonnull align 8 dereferenceable(8) %0) #0 comdat align 2 {
  %2 = alloca ptr, align 8
  store ptr %0, ptr %2, align 8
  %3 = load ptr, ptr %2, align 8
  %4 = call noundef nonnull align 8 dereferenceable(8) ptr @_ZNSt10_Head_baseILm0EPN5clang7CodeGen12SwiftABIInfoELb0EE7_M_headERKS4_(ptr noundef nonnull align 8 dereferenceable(8) %3) #6
  ret ptr %4
}

; Function Attrs: mustprogress nounwind uwtable
define linkonce_odr noundef nonnull align 8 dereferenceable(8) ptr @_ZSt12__get_helperILm0EPN5clang7CodeGen12SwiftABIInfoEJSt14default_deleteIS2_EEERKT0_RKSt11_Tuple_implIXT_EJS6_DpT1_EE(ptr noundef nonnull align 8 dereferenceable(8) %0) #0 comdat {
  %2 = alloca ptr, align 8
  store ptr %0, ptr %2, align 8
  %3 = load ptr, ptr %2, align 8
  %4 = call noundef nonnull align 8 dereferenceable(8) ptr @_ZNSt11_Tuple_implILm0EJPN5clang7CodeGen12SwiftABIInfoESt14default_deleteIS2_EEE7_M_headERKS6_(ptr noundef nonnull align 8 dereferenceable(8) %3) #6
  ret ptr %4
}

; Function Attrs: mustprogress nounwind uwtable
define linkonce_odr noundef nonnull align 8 dereferenceable(8) ptr @_ZSt3getILm0EJPN5clang7CodeGen12SwiftABIInfoESt14default_deleteIS2_EEERKNSt13tuple_elementIXT_ESt5tupleIJDpT0_EEE4typeERKSA_(ptr noundef nonnull align 8 dereferenceable(8) %0) #0 comdat {
  %2 = alloca ptr, align 8
  store ptr %0, ptr %2, align 8
  %3 = load ptr, ptr %2, align 8
  %4 = call noundef nonnull align 8 dereferenceable(8) ptr @_ZSt12__get_helperILm0EPN5clang7CodeGen12SwiftABIInfoEJSt14default_deleteIS2_EEERKT0_RKSt11_Tuple_implIXT_EJS6_DpT1_EE(ptr noundef nonnull align 8 dereferenceable(8) %3) #6
  ret ptr %4
}

; Function Attrs: mustprogress nounwind uwtable
define linkonce_odr hidden noundef ptr @_ZNKSt15__uniq_ptr_implIN5clang7CodeGen12SwiftABIInfoESt14default_deleteIS2_EE6_M_ptrEv(ptr noundef nonnull align 8 dereferenceable(8) %0) #0 comdat align 2 {
  %2 = alloca ptr, align 8
  store ptr %0, ptr %2, align 8
  %3 = load ptr, ptr %2, align 8
  %4 = getelementptr inbounds nuw %"class.std::__uniq_ptr_impl.890", ptr %3, i32 0, i32 0
  %5 = call noundef nonnull align 8 dereferenceable(8) ptr @_ZSt3getILm0EJPN5clang7CodeGen12SwiftABIInfoESt14default_deleteIS2_EEERKNSt13tuple_elementIXT_ESt5tupleIJDpT0_EEE4typeERKSA_(ptr noundef nonnull align 8 dereferenceable(8) %4) #6
  %6 = load ptr, ptr %5, align 8
  ret ptr %6
}

; Function Attrs: mustprogress nounwind uwtable
define linkonce_odr hidden noundef ptr @_ZNKSt10unique_ptrIN5clang7CodeGen12SwiftABIInfoESt14default_deleteIS2_EE3getEv(ptr noundef nonnull align 8 dereferenceable(8) %0) #0 comdat align 2 {
  %2 = alloca ptr, align 8
  store ptr %0, ptr %2, align 8
  %3 = load ptr, ptr %2, align 8
  %4 = getelementptr inbounds nuw %"class.std::unique_ptr.888", ptr %3, i32 0, i32 0
  %5 = call noundef ptr @_ZNKSt15__uniq_ptr_implIN5clang7CodeGen12SwiftABIInfoESt14default_deleteIS2_EE6_M_ptrEv(ptr noundef nonnull align 8 dereferenceable(8) %4) #6
  ret ptr %5
}

; Function Attrs: mustprogress nounwind uwtable
define linkonce_odr hidden noundef nonnull align 8 dereferenceable(17) ptr @_ZNKSt10unique_ptrIN5clang7CodeGen12SwiftABIInfoESt14default_deleteIS2_EEdeEv(ptr noundef nonnull align 8 dereferenceable(8) %0) #0 comdat align 2 {
  %2 = alloca ptr, align 8
  store ptr %0, ptr %2, align 8
  %3 = load ptr, ptr %2, align 8
  br label %4

4:                                                ; preds = %1
  br label %5

5:                                                ; preds = %4
  %6 = call noundef ptr @_ZNKSt10unique_ptrIN5clang7CodeGen12SwiftABIInfoESt14default_deleteIS2_EE3getEv(ptr noundef nonnull align 8 dereferenceable(8) %3) #6
  ret ptr %6
}

; Function Attrs: mustprogress nounwind uwtable
define linkonce_odr hidden noundef nonnull align 8 dereferenceable(17) ptr @_ZNK5clang7CodeGen17TargetCodeGenInfo15getSwiftABIInfoEv(ptr noundef nonnull align 8 dereferenceable(24) %0) #0 comdat align 2 {
  %2 = alloca ptr, align 8
  store ptr %0, ptr %2, align 8
  %3 = load ptr, ptr %2, align 8
  %4 = getelementptr inbounds nuw %"class.clang::CodeGen::TargetCodeGenInfo", ptr %3, i32 0, i32 2
  %5 = call noundef nonnull align 8 dereferenceable(17) ptr @_ZNKSt10unique_ptrIN5clang7CodeGen12SwiftABIInfoESt14default_deleteIS2_EEdeEv(ptr noundef nonnull align 8 dereferenceable(8) %4) #6
  ret ptr %5
}

; Function Attrs: mustprogress nounwind uwtable
define linkonce_odr hidden noundef zeroext i1 @_ZNK5clang7CodeGen12SwiftABIInfo22isSwiftErrorInRegisterEv(ptr noundef nonnull align 8 dereferenceable(17) %0) #0 comdat align 2 {
  %2 = alloca ptr, align 8
  store ptr %0, ptr %2, align 8
  %3 = load ptr, ptr %2, align 8
  %4 = getelementptr inbounds nuw %"class.clang::CodeGen::SwiftABIInfo", ptr %3, i32 0, i32 2
  %5 = load i8, ptr %4, align 8
  %6 = trunc i8 %5 to i1
  ret i1 %6
}

; Function Attrs: mustprogress nounwind uwtable
define internal noundef nonnull align 8 dereferenceable(17) ptr @_ZL15getSwiftABIInfoRN5clang7CodeGen13CodeGenModuleE(ptr noundef nonnull align 8 dereferenceable(3600) %0) #0 {
  %2 = alloca ptr, align 8
  store ptr %0, ptr %2, align 8
  %3 = load ptr, ptr %2, align 8
  %4 = call noundef nonnull align 8 dereferenceable(24) ptr @_ZN5clang7CodeGen13CodeGenModule20getTargetCodeGenInfoEv(ptr noundef nonnull align 8 dereferenceable(3600) %3)
  %5 = call noundef nonnull align 8 dereferenceable(17) ptr @_ZNK5clang7CodeGen17TargetCodeGenInfo15getSwiftABIInfoEv(ptr noundef nonnull align 8 dereferenceable(24) %4)
  ret ptr %5
}

; Function Attrs: mustprogress nounwind uwtable
define dso_local noundef zeroext i1 @_ZN5clang7CodeGen9swiftcall29isSwiftErrorLoweredInRegisterERNS0_13CodeGenModuleE(ptr noundef nonnull align 8 dereferenceable(3600) %0) #0 {
  %2 = alloca ptr, align 8
  store ptr %0, ptr %2, align 8
  %3 = load ptr, ptr %2, align 8
  %4 = call noundef nonnull align 8 dereferenceable(17) ptr @_ZL15getSwiftABIInfoRN5clang7CodeGen13CodeGenModuleE(ptr noundef nonnull align 8 dereferenceable(3600) %3)
  %5 = call noundef zeroext i1 @_ZNK5clang7CodeGen12SwiftABIInfo22isSwiftErrorInRegisterEv(ptr noundef nonnull align 8 dereferenceable(17) %4)
  ret i1 %5
}