; Function Attrs: mustprogress nounwind uwtable
define dso_local noundef zeroext i1 @_ZN5clang7CodeGen9swiftcall29isSwiftErrorLoweredInRegisterERNS0_13CodeGenModuleE(ptr noundef nonnull align 8 dereferenceable(3600) %0) local_unnamed_addr #0 {
  %2 = tail call noundef nonnull align 8 dereferenceable(24) ptr @_ZN5clang7CodeGen13CodeGenModule20getTargetCodeGenInfoEv(ptr noundef nonnull align 8 dereferenceable(3600) %0) #13
  %3 = getelementptr inbounds nuw i8, ptr %2, i64 16
  %4 = load ptr, ptr %3, align 8
  %5 = getelementptr inbounds nuw i8, ptr %4, i64 16
  %6 = load i8, ptr %5, align 8
  %7 = trunc i8 %6 to i1
  ret i1 %7
}